target datalayout = "e-m:e-p270:32:32-p271:32:32-p272:64:64-i64:64-i128:128-f80:128-n8:16:32:64-S128"
target triple = "x86_64-pc-linux-gnu"

%struct.SDL_HIDAPI_Device = type { ptr, ptr, ptr, ptr, i16, i16, i16, ptr, %struct.SDL_GUID, i32, i32, i32, i32, i16, i16, i8, i32, i32, i32, ptr, ptr, ptr, ptr, %struct.SDL_AtomicInt, i32, ptr, i8, i8, i8, ptr, i32, ptr, ptr }
%struct.SDL_GUID = type { [16 x i8] }
%struct.SDL_AtomicInt = type { i32 }
%struct.SDL_DriverStadia_Context = type { i8, [64 x i8] }

@__const.HIDAPI_DriverStadia_InitDevice.rumble_packet = private unnamed_addr constant [5 x i8] c"\05\00\00\00\00", align 1
@.str.2 = private unnamed_addr constant [25 x i8] c"Google Stadia Controller\00", align 1

; Function Attrs: nounwind uwtable
define internal zeroext i1 @HIDAPI_DriverStadia_InitDevice(ptr noundef %0) #0 {
  %2 = alloca i1, align 1
  %3 = alloca ptr, align 8
  %4 = alloca ptr, align 8
  %5 = alloca i32, align 4
  %6 = alloca [5 x i8], align 1
  store ptr %0, ptr %3, align 8
  call void @llvm.lifetime.start.p0(i64 8, ptr %4) #6
  %7 = call noalias ptr @SDL_calloc_REAL(i64 noundef 1, i64 noundef 65) #7
  store ptr %7, ptr %4, align 8
  %8 = load ptr, ptr %4, align 8
  %9 = icmp ne ptr %8, null
  br i1 %9, label %11, label %10

10:                                               ; preds = %1
  store i1 false, ptr %2, align 1
  store i32 1, ptr %5, align 4
  br label %28

11:                                               ; preds = %1
  %12 = load ptr, ptr %4, align 8
  %13 = load ptr, ptr %3, align 8
  %14 = getelementptr inbounds nuw %struct.SDL_HIDAPI_Device, ptr %13, i32 0, i32 20
  store ptr %12, ptr %14, align 8
  call void @llvm.lifetime.start.p0(i64 5, ptr %6) #6
  call void @llvm.memcpy.p0.p0.i64(ptr align 1 %6, ptr align 1 @__const.HIDAPI_DriverStadia_InitDevice.rumble_packet, i64 5, i1 false)
  %15 = load ptr, ptr %3, align 8
  %16 = getelementptr inbounds nuw %struct.SDL_HIDAPI_Device, ptr %15, i32 0, i32 22
  %17 = load ptr, ptr %16, align 8
  %18 = getelementptr inbounds [5 x i8], ptr %6, i64 0, i64 0
  %19 = call i32 @SDL_hid_write_REAL(ptr noundef %17, ptr noundef %18, i64 noundef 5)
  %20 = icmp sge i32 %19, 0
  br i1 %20, label %21, label %24

21:                                               ; preds = %11
  %22 = load ptr, ptr %4, align 8
  %23 = getelementptr inbounds nuw %struct.SDL_DriverStadia_Context, ptr %22, i32 0, i32 0
  store i8 1, ptr %23, align 1
  br label %24

24:                                               ; preds = %21, %11
  call void @llvm.lifetime.end.p0(i64 5, ptr %6) #6
  %25 = load ptr, ptr %3, align 8
  call void @HIDAPI_SetDeviceName(ptr noundef %25, ptr noundef @.str.2)
  %26 = load ptr, ptr %3, align 8
  %27 = call zeroext i1 @HIDAPI_JoystickConnected(ptr noundef %26, ptr noundef null)
  store i1 %27, ptr %2, align 1
  store i32 1, ptr %5, align 4
  br label %28

28:                                               ; preds = %24, %10
  call void @llvm.lifetime.end.p0(i64 8, ptr %4) #6
  %29 = load i1, ptr %2, align 1
  ret i1 %29
}