; Function Attrs: nounwind uwtable
define internal zeroext i1 @HIDAPI_DriverStadia_InitDevice(ptr noundef %0) #0 {
  %2 = alloca [5 x i8], align 1
  %3 = tail call noalias dereferenceable_or_null(65) ptr @SDL_calloc_REAL(i64 noundef 1, i64 noundef 65) #10
  %.not = icmp eq ptr %3, null
  br i1 %.not, label %13, label %4

4:                                                ; preds = %1
  %5 = getelementptr inbounds nuw i8, ptr %0, i64 112
  store ptr %3, ptr %5, align 8
  call void @llvm.lifetime.start.p0(i64 5, ptr nonnull %2) #9
  call void @llvm.memcpy.p0.p0.i64(ptr noundef nonnull align 1 dereferenceable(5) %2, ptr noundef nonnull align 1 dereferenceable(5) @__const.HIDAPI_DriverStadia_InitDevice.rumble_packet, i64 5, i1 false)
  %6 = getelementptr inbounds nuw i8, ptr %0, i64 128
  %7 = load ptr, ptr %6, align 8
  %8 = call i32 @SDL_hid_write_REAL(ptr noundef %7, ptr noundef nonnull %2, i64 noundef 5) #9
  %9 = icmp sgt i32 %8, -1
  br i1 %9, label %10, label %11

10:                                               ; preds = %4
  store i8 1, ptr %3, align 1
  br label %11

11:                                               ; preds = %10, %4
  call void @llvm.lifetime.end.p0(i64 5, ptr nonnull %2) #9
  call void @HIDAPI_SetDeviceName(ptr noundef nonnull %0, ptr noundef nonnull @.str.2) #9
  %12 = call zeroext i1 @HIDAPI_JoystickConnected(ptr noundef nonnull %0, ptr noundef null) #9
  br label %13

13:                                               ; preds = %1, %11
  %.0 = phi i1 [ %12, %11 ], [ false, %1 ]
  ret i1 %.0
}